target datalayout = "e-m:e-p270:32:32-p271:32:32-p272:64:64-i64:64-i128:128-f80:128-n8:16:32:64-S128"
target triple = "x86_64-pc-linux-gnu"

%struct.slurmdb_rpc_obj_t = type { i32, i32, i64, i64 }

@.str.41 = private unnamed_addr constant [12 x i8] c"\09%-25s(%5u)\00", align 1
@.str.42 = private unnamed_addr constant [13 x i8] c"\09%-20s(%10u)\00", align 1
@.str.43 = private unnamed_addr constant [43 x i8] c" count:%-6u ave_time:%-6lu total_time:%lu\0A\00", align 1

; Function Attrs: nounwind uwtable
define internal i32 @_print_rpc_obj(ptr noundef %0, ptr noundef %1) #0 {
  %3 = alloca ptr, align 8
  %4 = alloca ptr, align 8
  %5 = alloca ptr, align 8
  %6 = alloca i32, align 4
  store ptr %0, ptr %3, align 8
  store ptr %1, ptr %4, align 8
  call void @llvm.lifetime.start.p0(i64 8, ptr %5) #5
  %7 = load ptr, ptr %3, align 8
  store ptr %7, ptr %5, align 8
  call void @llvm.lifetime.start.p0(i64 4, ptr %6) #5
  %8 = load ptr, ptr %4, align 8
  %9 = load i32, ptr %8, align 4
  store i32 %9, ptr %6, align 4
  %10 = load i32, ptr %6, align 4
  %11 = icmp eq i32 %10, 0
  br i1 %11, label %12, label %21

12:                                               ; preds = %2
  %13 = load ptr, ptr %5, align 8
  %14 = getelementptr inbounds nuw %struct.slurmdb_rpc_obj_t, ptr %13, i32 0, i32 1
  %15 = load i32, ptr %14, align 4
  %16 = call ptr @slurmdbd_msg_type_2_str(i32 noundef %15, i32 noundef 1)
  %17 = load ptr, ptr %5, align 8
  %18 = getelementptr inbounds nuw %struct.slurmdb_rpc_obj_t, ptr %17, i32 0, i32 1
  %19 = load i32, ptr %18, align 4
  %20 = call i32 (ptr, ...) @printf(ptr noundef @.str.41, ptr noundef %16, i32 noundef %19)
  br label %30

21:                                               ; preds = %2
  %22 = load ptr, ptr %5, align 8
  %23 = getelementptr inbounds nuw %struct.slurmdb_rpc_obj_t, ptr %22, i32 0, i32 1
  %24 = load i32, ptr %23, align 4
  %25 = call ptr @uid_to_string_cached(i32 noundef %24)
  %26 = load ptr, ptr %5, align 8
  %27 = getelementptr inbounds nuw %struct.slurmdb_rpc_obj_t, ptr %26, i32 0, i32 1
  %28 = load i32, ptr %27, align 4
  %29 = call i32 (ptr, ...) @printf(ptr noundef @.str.42, ptr noundef %25, i32 noundef %28)
  br label %30

30:                                               ; preds = %21, %12
  %31 = load ptr, ptr %5, align 8
  %32 = getelementptr inbounds nuw %struct.slurmdb_rpc_obj_t, ptr %31, i32 0, i32 0
  %33 = load i32, ptr %32, align 8
  %34 = load ptr, ptr %5, align 8
  %35 = getelementptr inbounds nuw %struct.slurmdb_rpc_obj_t, ptr %34, i32 0, i32 3
  %36 = load i64, ptr %35, align 8
  %37 = load ptr, ptr %5, align 8
  %38 = getelementptr inbounds nuw %struct.slurmdb_rpc_obj_t, ptr %37, i32 0, i32 2
  %39 = load i64, ptr %38, align 8
  %40 = call i32 (ptr, ...) @printf(ptr noundef @.str.43, i32 noundef %33, i64 noundef %36, i64 noundef %39)
  call void @llvm.lifetime.end.p0(i64 4, ptr %6) #5
  call void @llvm.lifetime.end.p0(i64 8, ptr %5) #5
  ret i32 0
}