; Function Attrs: nounwind uwtable
define internal noundef i32 @_print_rpc_obj(ptr noundef readonly captures(none) %0, ptr noundef readonly captures(none) %1) #0 {
  %3 = load i32, ptr %1, align 4
  %4 = icmp eq i32 %3, 0
  %5 = getelementptr inbounds nuw i8, ptr %0, i64 4
  %6 = load i32, ptr %5, align 4
  br i1 %4, label %7, label %11

7:                                                ; preds = %2
  %8 = tail call ptr @slurmdbd_msg_type_2_str(i32 noundef %6, i32 noundef 1) #8
  %9 = load i32, ptr %5, align 4
  %10 = tail call i32 (ptr, ...) @printf(ptr noundef nonnull dereferenceable(1) @.str.41, ptr noundef %8, i32 noundef %9)
  br label %15

11:                                               ; preds = %2
  %12 = tail call ptr @uid_to_string_cached(i32 noundef %6) #8
  %13 = load i32, ptr %5, align 4
  %14 = tail call i32 (ptr, ...) @printf(ptr noundef nonnull dereferenceable(1) @.str.42, ptr noundef %12, i32 noundef %13)
  br label %15

15:                                               ; preds = %11, %7
  %16 = load i32, ptr %0, align 8
  %17 = getelementptr inbounds nuw i8, ptr %0, i64 16
  %18 = load i64, ptr %17, align 8
  %19 = getelementptr inbounds nuw i8, ptr %0, i64 8
  %20 = load i64, ptr %19, align 8
  %21 = tail call i32 (ptr, ...) @printf(ptr noundef nonnull dereferenceable(1) @.str.43, i32 noundef %16, i64 noundef %18, i64 noundef %20)
  ret i32 0
}